; Function Attrs: mustprogress nofree norecurse nosync nounwind willreturn memory(argmem: readwrite) uwtable
define internal noundef range(i32 -1, 2) i32 @_ZL16luauF_vectorsignP9lua_StateP10lua_TValueS2_iS2_i(ptr readnone captures(none) %0, ptr noundef writeonly captures(none) %1, ptr noundef readonly captures(none) %2, i32 noundef %3, ptr readnone captures(none) %4, i32 noundef %5) #1 {
  %7 = icmp sgt i32 %5, 0
  %8 = icmp slt i32 %3, 2
  %or.cond = and i1 %8, %7
  br i1 %or.cond, label %9, label %34

9:                                                ; preds = %6
  %10 = getelementptr inbounds nuw i8, ptr %2, i64 12
  %11 = load i32, ptr %10, align 4, !tbaa !4
  %12 = icmp eq i32 %11, 4
  br i1 %12, label %13, label %34

13:                                               ; preds = %9
  %14 = load float, ptr %2, align 4, !tbaa !51
  %15 = fcmp ogt float %14, 0.000000e+00
  %16 = fcmp olt float %14, 0.000000e+00
  %17 = select i1 %16, float -1.000000e+00, float 0.000000e+00
  %18 = select i1 %15, float 1.000000e+00, float %17
  store float %18, ptr %1, align 4, !tbaa !51
  %19 = getelementptr inbounds nuw i8, ptr %2, i64 4
  %20 = load float, ptr %19, align 4, !tbaa !51
  %21 = fcmp ogt float %20, 0.000000e+00
  %22 = fcmp olt float %20, 0.000000e+00
  %23 = select i1 %22, float -1.000000e+00, float 0.000000e+00
  %24 = select i1 %21, float 1.000000e+00, float %23
  %25 = getelementptr inbounds nuw i8, ptr %1, i64 4
  store float %24, ptr %25, align 4, !tbaa !51
  %26 = getelementptr inbounds nuw i8, ptr %2, i64 8
  %27 = load float, ptr %26, align 4, !tbaa !51
  %28 = fcmp ogt float %27, 0.000000e+00
  %29 = fcmp olt float %27, 0.000000e+00
  %30 = select i1 %29, float -1.000000e+00, float 0.000000e+00
  %31 = select i1 %28, float 1.000000e+00, float %30
  %32 = getelementptr inbounds nuw i8, ptr %1, i64 8
  store float %31, ptr %32, align 4, !tbaa !51
  %33 = getelementptr inbounds nuw i8, ptr %1, i64 12
  store i32 4, ptr %33, align 4, !tbaa !4
  br label %34

34:                                               ; preds = %6, %9, %13
  %.0 = phi i32 [ 1, %13 ], [ -1, %9 ], [ -1, %6 ]
  ret i32 %.0
}